; Function Attrs: mustprogress nofree norecurse nosync nounwind willreturn memory(read, inaccessiblemem: none) uwtable
define range(i32 0, 4) i32 @GetVar(ptr noundef readonly captures(none) %0, i32 noundef %1) local_unnamed_addr #2 {
  %3 = shl i32 %1, 1
  %4 = getelementptr inbounds nuw i8, ptr %0, i64 8
  %5 = load ptr, ptr %4, align 8, !tbaa !11
  %6 = ashr i32 %3, 5
  %7 = sext i32 %6 to i64
  %8 = getelementptr inbounds i32, ptr %5, i64 %7
  %9 = load i32, ptr %8, align 4, !tbaa !8
  %10 = and i32 %3, 30
  %11 = lshr i32 %9, %10
  %12 = and i32 %11, 3
  ret i32 %12
}